; Function Attrs: mustprogress uwtable
define internal void @"_ZNSt17_Function_handlerIFvPKcEZNK14V3OptionParser12AppendHelperclES1_NS4_14CbPartialMatchESt8functionIS2_EE3$_0E9_M_invokeERKSt9_Any_dataOS1_"(ptr nocapture noundef nonnull readonly align 8 dereferenceable(16) %0, ptr nocapture noundef nonnull readonly align 8 dereferenceable(8) %1) #3 align 2 {
  %3 = alloca ptr, align 8
  %.val = load ptr, ptr %0, align 8
  %.val2 = load ptr, ptr %1, align 8
  %4 = load i64, ptr %.val, align 8
  %5 = getelementptr inbounds i8, ptr %.val2, i64 %4
  call void @llvm.lifetime.start.p0(i64 8, ptr nonnull %3)
  store ptr %5, ptr %3, align 8
  %6 = getelementptr inbounds i8, ptr %.val, i64 24
  %7 = load ptr, ptr %6, align 8
  %.not.i.i.i.i.i = icmp eq ptr %7, null
  br i1 %.not.i.i.i.i.i, label %8, label %"_ZSt10__invoke_rIvRZNK14V3OptionParser12AppendHelperclEPKcNS1_14CbPartialMatchESt8functionIFvS3_EEE3$_0JS3_EENSt9enable_ifIX16is_invocable_r_vIT_T0_DpT1_EESB_E4typeEOSC_DpOSD_.exit"

8:                                                ; preds = %2
  tail call void @_ZSt25__throw_bad_function_callv() #18
  unreachable

"_ZSt10__invoke_rIvRZNK14V3OptionParser12AppendHelperclEPKcNS1_14CbPartialMatchESt8functionIFvS3_EEE3$_0JS3_EENSt9enable_ifIX16is_invocable_r_vIT_T0_DpT1_EESB_E4typeEOSC_DpOSD_.exit": ; preds = %2
  %9 = getelementptr inbounds i8, ptr %.val, i64 8
  %10 = getelementptr inbounds i8, ptr %.val, i64 32
  %11 = load ptr, ptr %10, align 8
  call void %11(ptr noundef nonnull align 8 dereferenceable(16) %9, ptr noundef nonnull align 8 dereferenceable(8) %3)
  call void @llvm.lifetime.end.p0(i64 8, ptr nonnull %3)
  ret void
}